target datalayout = "e-m:e-p270:32:32-p271:32:32-p272:64:64-i64:64-i128:128-f80:128-n8:16:32:64-S128"
target triple = "x86_64-pc-linux-gnu"

%struct.expert_field = type { i32, i32 }
%struct._packet_info = type { ptr, ptr, i32, i32, %struct.nstime_t, %struct.nstime_t, %struct.nstime_t, i8, ptr, ptr, ptr, ptr, %struct._address, %struct._address, %struct._address, %struct._address, %struct._address, %struct._address, i32, ptr, i8, [3 x i8], %struct.anon, i32, i32, i32, i32, ptr, i8, ptr, ptr, i16, i16, i32, i32, i16, i32, i32, ptr, ptr, ptr, i8, i8, i16, i16, i16, i32, i16, i16, ptr, ptr, ptr, ptr, ptr, i32, i32 }
%struct.nstime_t = type { i64, i32 }
%struct._address = type { i32, i32, ptr, ptr }
%struct.anon = type { i8, [3 x i8] }

@ei_gsm_a_gm_extraneous_data = internal global %struct.expert_field zeroinitializer, align 4
@ei_gsm_a_gm_missing_mandatory_element = internal global %struct.expert_field zeroinitializer, align 4
@.str.1096 = private unnamed_addr constant [64 x i8] c"Missing Mandatory elements %s %s, rest of dissection is suspect\00", align 1
@.str.1113 = private unnamed_addr constant [34 x i8] c" - Replayed MS network capability\00", align 1
@.str.1114 = private unnamed_addr constant [39 x i8] c" - Replayed MS Radio Access capability\00", align 1

; Function Attrs: null_pointer_is_valid sspstrong uwtable
define internal void @dtap_gmm_auth_ciph_req(ptr noundef %0, ptr noundef %1, ptr noundef %2, i32 noundef %3, i32 noundef %4) #1 {
  %6 = alloca ptr, align 8
  %7 = alloca ptr, align 8
  %8 = alloca ptr, align 8
  %9 = alloca i32, align 4
  %10 = alloca i32, align 4
  %11 = alloca i32, align 4
  %12 = alloca i32, align 4
  %13 = alloca i32, align 4
  %14 = alloca i32, align 4
  store ptr %0, ptr %6, align 8
  store ptr %1, ptr %7, align 8
  store ptr %2, ptr %8, align 8
  store i32 %3, ptr %9, align 4
  store i32 %4, ptr %10, align 4
  call void @llvm.lifetime.start.p0(i64 4, ptr %11) #6
  call void @llvm.lifetime.start.p0(i64 4, ptr %12) #6
  call void @llvm.lifetime.start.p0(i64 4, ptr %13) #6
  %15 = load i32, ptr %9, align 4
  store i32 %15, ptr %11, align 4
  %16 = load i32, ptr %10, align 4
  store i32 %16, ptr %13, align 4
  %17 = load ptr, ptr %8, align 8
  %18 = getelementptr inbounds nuw %struct._packet_info, ptr %17, i32 0, i32 37
  store i32 0, ptr %18, align 4
  %19 = load i32, ptr %13, align 4
  %20 = icmp sgt i32 %19, 0
  br i1 %20, label %21, label %36

21:                                               ; preds = %5
  %22 = load ptr, ptr %6, align 8
  %23 = load ptr, ptr %7, align 8
  %24 = load ptr, ptr %8, align 8
  %25 = load i32, ptr %11, align 4
  %26 = call zeroext i16 @elem_v_short(ptr noundef %22, ptr noundef %23, ptr noundef %24, i32 noundef 5, i32 noundef 3, i32 noundef %25, i32 noundef 1)
  %27 = load ptr, ptr %6, align 8
  %28 = load ptr, ptr %7, align 8
  %29 = load ptr, ptr %8, align 8
  %30 = load i32, ptr %11, align 4
  %31 = call zeroext i16 @elem_v_short(ptr noundef %27, ptr noundef %28, ptr noundef %29, i32 noundef 5, i32 noundef 13, i32 noundef %30, i32 noundef 2)
  %32 = load i32, ptr %11, align 4
  %33 = add i32 %32, 1
  store i32 %33, ptr %11, align 4
  %34 = load i32, ptr %13, align 4
  %35 = add i32 %34, -1
  store i32 %35, ptr %13, align 4
  br label %44

36:                                               ; preds = %5
  %37 = load ptr, ptr %7, align 8
  %38 = load ptr, ptr %8, align 8
  %39 = load ptr, ptr %6, align 8
  %40 = load i32, ptr %11, align 4
  %41 = call ptr @get_gsm_a_msg_string(i32 noundef 5, i32 noundef 3)
  %42 = call ptr @get_gsm_a_msg_string(i32 noundef 5, i32 noundef 13)
  %43 = call ptr (ptr, ptr, ptr, ptr, i32, i32, ptr, ...) @proto_tree_add_expert_format(ptr noundef %37, ptr noundef %38, ptr noundef @ei_gsm_a_gm_missing_mandatory_element, ptr noundef %39, i32 noundef %40, i32 noundef 0, ptr noundef @.str.1096, ptr noundef %41, ptr noundef %42)
  br label %44

44:                                               ; preds = %36, %21
  %45 = load i32, ptr %13, align 4
  %46 = icmp sgt i32 %45, 0
  br i1 %46, label %47, label %62

47:                                               ; preds = %44
  %48 = load ptr, ptr %6, align 8
  %49 = load ptr, ptr %7, align 8
  %50 = load ptr, ptr %8, align 8
  %51 = load i32, ptr %11, align 4
  %52 = call zeroext i16 @elem_v_short(ptr noundef %48, ptr noundef %49, ptr noundef %50, i32 noundef 5, i32 noundef 8, i32 noundef %51, i32 noundef 1)
  %53 = load ptr, ptr %6, align 8
  %54 = load ptr, ptr %7, align 8
  %55 = load ptr, ptr %8, align 8
  %56 = load i32, ptr %11, align 4
  %57 = call zeroext i16 @elem_v_short(ptr noundef %53, ptr noundef %54, ptr noundef %55, i32 noundef 5, i32 noundef 23, i32 noundef %56, i32 noundef 2)
  %58 = load i32, ptr %11, align 4
  %59 = add i32 %58, 1
  store i32 %59, ptr %11, align 4
  %60 = load i32, ptr %13, align 4
  %61 = add i32 %60, -1
  store i32 %61, ptr %13, align 4
  br label %70

62:                                               ; preds = %44
  %63 = load ptr, ptr %7, align 8
  %64 = load ptr, ptr %8, align 8
  %65 = load ptr, ptr %6, align 8
  %66 = load i32, ptr %11, align 4
  %67 = call ptr @get_gsm_a_msg_string(i32 noundef 5, i32 noundef 8)
  %68 = call ptr @get_gsm_a_msg_string(i32 noundef 5, i32 noundef 23)
  %69 = call ptr (ptr, ptr, ptr, ptr, i32, i32, ptr, ...) @proto_tree_add_expert_format(ptr noundef %63, ptr noundef %64, ptr noundef @ei_gsm_a_gm_missing_mandatory_element, ptr noundef %65, i32 noundef %66, i32 noundef 0, ptr noundef @.str.1096, ptr noundef %67, ptr noundef %68)
  br label %70

70:                                               ; preds = %62, %47
  %71 = load i32, ptr %13, align 4
  %72 = icmp sle i32 %71, 0
  br i1 %72, label %73, label %74

73:                                               ; preds = %70
  store i32 1, ptr %14, align 4
  br label %224

74:                                               ; preds = %70
  %75 = load ptr, ptr %6, align 8
  %76 = load ptr, ptr %7, align 8
  %77 = load ptr, ptr %8, align 8
  %78 = load i32, ptr %11, align 4
  %79 = call zeroext i16 @elem_tv(ptr noundef %75, ptr noundef %76, ptr noundef %77, i8 noundef zeroext 33, i32 noundef 1, i32 noundef 0, i32 noundef %78, ptr noundef null)
  %80 = zext i16 %79 to i32
  store i32 %80, ptr %12, align 4
  %81 = icmp ugt i32 %80, 0
  br i1 %81, label %82, label %89

82:                                               ; preds = %74
  %83 = load i32, ptr %12, align 4
  %84 = load i32, ptr %11, align 4
  %85 = add i32 %84, %83
  store i32 %85, ptr %11, align 4
  %86 = load i32, ptr %12, align 4
  %87 = load i32, ptr %13, align 4
  %88 = sub i32 %87, %86
  store i32 %88, ptr %13, align 4
  br label %89

89:                                               ; preds = %82, %74
  %90 = load i32, ptr %13, align 4
  %91 = icmp sle i32 %90, 0
  br i1 %91, label %92, label %93

92:                                               ; preds = %89
  store i32 1, ptr %14, align 4
  br label %224

93:                                               ; preds = %89
  %94 = load ptr, ptr %6, align 8
  %95 = load ptr, ptr %7, align 8
  %96 = load ptr, ptr %8, align 8
  %97 = load i32, ptr %11, align 4
  %98 = call zeroext i16 @elem_tv_short(ptr noundef %94, ptr noundef %95, ptr noundef %96, i8 noundef zeroext -128, i32 noundef 4, i32 noundef 1, i32 noundef %97, ptr noundef null)
  %99 = zext i16 %98 to i32
  store i32 %99, ptr %12, align 4
  %100 = icmp ugt i32 %99, 0
  br i1 %100, label %101, label %108

101:                                              ; preds = %93
  %102 = load i32, ptr %12, align 4
  %103 = load i32, ptr %11, align 4
  %104 = add i32 %103, %102
  store i32 %104, ptr %11, align 4
  %105 = load i32, ptr %12, align 4
  %106 = load i32, ptr %13, align 4
  %107 = sub i32 %106, %105
  store i32 %107, ptr %13, align 4
  br label %108

108:                                              ; preds = %101, %93
  %109 = load i32, ptr %13, align 4
  %110 = icmp sle i32 %109, 0
  br i1 %110, label %111, label %112

111:                                              ; preds = %108
  store i32 1, ptr %14, align 4
  br label %224

112:                                              ; preds = %108
  %113 = load ptr, ptr %6, align 8
  %114 = load ptr, ptr %7, align 8
  %115 = load ptr, ptr %8, align 8
  %116 = load i32, ptr %11, align 4
  %117 = load i32, ptr %13, align 4
  %118 = call zeroext i16 @elem_tlv(ptr noundef %113, ptr noundef %114, ptr noundef %115, i8 noundef zeroext 40, i32 noundef 1, i32 noundef 1, i32 noundef %116, i32 noundef %117, ptr noundef null)
  %119 = zext i16 %118 to i32
  store i32 %119, ptr %12, align 4
  %120 = icmp ugt i32 %119, 0
  br i1 %120, label %121, label %128

121:                                              ; preds = %112
  %122 = load i32, ptr %12, align 4
  %123 = load i32, ptr %11, align 4
  %124 = add i32 %123, %122
  store i32 %124, ptr %11, align 4
  %125 = load i32, ptr %12, align 4
  %126 = load i32, ptr %13, align 4
  %127 = sub i32 %126, %125
  store i32 %127, ptr %13, align 4
  br label %128

128:                                              ; preds = %121, %112
  %129 = load i32, ptr %13, align 4
  %130 = icmp sle i32 %129, 0
  br i1 %130, label %131, label %132

131:                                              ; preds = %128
  store i32 1, ptr %14, align 4
  br label %224

132:                                              ; preds = %128
  %133 = load ptr, ptr %6, align 8
  %134 = load ptr, ptr %7, align 8
  %135 = load ptr, ptr %8, align 8
  %136 = load i32, ptr %11, align 4
  %137 = load i32, ptr %13, align 4
  %138 = call zeroext i16 @elem_tlv(ptr noundef %133, ptr noundef %134, ptr noundef %135, i8 noundef zeroext 49, i32 noundef 5, i32 noundef 15, i32 noundef %136, i32 noundef %137, ptr noundef @.str.1113)
  %139 = zext i16 %138 to i32
  store i32 %139, ptr %12, align 4
  %140 = icmp ugt i32 %139, 0
  br i1 %140, label %141, label %148

141:                                              ; preds = %132
  %142 = load i32, ptr %12, align 4
  %143 = load i32, ptr %11, align 4
  %144 = add i32 %143, %142
  store i32 %144, ptr %11, align 4
  %145 = load i32, ptr %12, align 4
  %146 = load i32, ptr %13, align 4
  %147 = sub i32 %146, %145
  store i32 %147, ptr %13, align 4
  br label %148

148:                                              ; preds = %141, %132
  %149 = load i32, ptr %13, align 4
  %150 = icmp sle i32 %149, 0
  br i1 %150, label %151, label %152

151:                                              ; preds = %148
  store i32 1, ptr %14, align 4
  br label %224

152:                                              ; preds = %148
  %153 = load ptr, ptr %6, align 8
  %154 = load ptr, ptr %7, align 8
  %155 = load ptr, ptr %8, align 8
  %156 = load i32, ptr %11, align 4
  %157 = load i32, ptr %13, align 4
  %158 = call zeroext i16 @elem_tlv(ptr noundef %153, ptr noundef %154, ptr noundef %155, i8 noundef zeroext 66, i32 noundef 5, i32 noundef 4, i32 noundef %156, i32 noundef %157, ptr noundef null)
  %159 = zext i16 %158 to i32
  store i32 %159, ptr %12, align 4
  %160 = icmp ugt i32 %159, 0
  br i1 %160, label %161, label %168

161:                                              ; preds = %152
  %162 = load i32, ptr %12, align 4
  %163 = load i32, ptr %11, align 4
  %164 = add i32 %163, %162
  store i32 %164, ptr %11, align 4
  %165 = load i32, ptr %12, align 4
  %166 = load i32, ptr %13, align 4
  %167 = sub i32 %166, %165
  store i32 %167, ptr %13, align 4
  br label %168

168:                                              ; preds = %161, %152
  %169 = load i32, ptr %13, align 4
  %170 = icmp sle i32 %169, 0
  br i1 %170, label %171, label %172

171:                                              ; preds = %168
  store i32 1, ptr %14, align 4
  br label %224

172:                                              ; preds = %168
  %173 = load ptr, ptr %6, align 8
  %174 = load ptr, ptr %7, align 8
  %175 = load ptr, ptr %8, align 8
  %176 = load i32, ptr %11, align 4
  %177 = load i32, ptr %13, align 4
  %178 = call zeroext i16 @elem_tlv(ptr noundef %173, ptr noundef %174, ptr noundef %175, i8 noundef zeroext 67, i32 noundef 5, i32 noundef 38, i32 noundef %176, i32 noundef %177, ptr noundef null)
  %179 = zext i16 %178 to i32
  store i32 %179, ptr %12, align 4
  %180 = icmp ugt i32 %179, 0
  br i1 %180, label %181, label %188

181:                                              ; preds = %172
  %182 = load i32, ptr %12, align 4
  %183 = load i32, ptr %11, align 4
  %184 = add i32 %183, %182
  store i32 %184, ptr %11, align 4
  %185 = load i32, ptr %12, align 4
  %186 = load i32, ptr %13, align 4
  %187 = sub i32 %186, %185
  store i32 %187, ptr %13, align 4
  br label %188

188:                                              ; preds = %181, %172
  %189 = load i32, ptr %13, align 4
  %190 = icmp sle i32 %189, 0
  br i1 %190, label %191, label %192

191:                                              ; preds = %188
  store i32 1, ptr %14, align 4
  br label %224

192:                                              ; preds = %188
  %193 = load ptr, ptr %6, align 8
  %194 = load ptr, ptr %7, align 8
  %195 = load ptr, ptr %8, align 8
  %196 = load i32, ptr %11, align 4
  %197 = load i32, ptr %13, align 4
  %198 = call zeroext i16 @elem_tlv(ptr noundef %193, ptr noundef %194, ptr noundef %195, i8 noundef zeroext 51, i32 noundef 5, i32 noundef 16, i32 noundef %196, i32 noundef %197, ptr noundef @.str.1114)
  %199 = zext i16 %198 to i32
  store i32 %199, ptr %12, align 4
  %200 = icmp ugt i32 %199, 0
  br i1 %200, label %201, label %208

201:                                              ; preds = %192
  %202 = load i32, ptr %12, align 4
  %203 = load i32, ptr %11, align 4
  %204 = add i32 %203, %202
  store i32 %204, ptr %11, align 4
  %205 = load i32, ptr %12, align 4
  %206 = load i32, ptr %13, align 4
  %207 = sub i32 %206, %205
  store i32 %207, ptr %13, align 4
  br label %208

208:                                              ; preds = %201, %192
  %209 = load i32, ptr %13, align 4
  %210 = icmp ugt i32 %209, 0
  br i1 %210, label %211, label %223

211:                                              ; preds = %208
  %212 = load ptr, ptr %7, align 8
  %213 = load ptr, ptr %8, align 8
  %214 = load ptr, ptr %6, align 8
  %215 = load i32, ptr %11, align 4
  %216 = load i32, ptr %13, align 4
  %217 = sub i32 %216, 0
  %218 = call ptr @proto_tree_add_expert(ptr noundef %212, ptr noundef %213, ptr noundef @ei_gsm_a_gm_extraneous_data, ptr noundef %214, i32 noundef %215, i32 noundef %217)
  %219 = load i32, ptr %13, align 4
  %220 = sub i32 %219, 0
  %221 = load i32, ptr %11, align 4
  %222 = add i32 %221, %220
  store i32 %222, ptr %11, align 4
  br label %223

223:                                              ; preds = %211, %208
  store i32 0, ptr %14, align 4
  br label %224

224:                                              ; preds = %223, %191, %171, %151, %131, %111, %92, %73
  call void @llvm.lifetime.end.p0(i64 4, ptr %13) #6
  call void @llvm.lifetime.end.p0(i64 4, ptr %12) #6
  call void @llvm.lifetime.end.p0(i64 4, ptr %11) #6
  %225 = load i32, ptr %14, align 4
  switch i32 %225, label %227 [
    i32 0, label %226
    i32 1, label %226
  ]

226:                                              ; preds = %224, %224
  ret void

227:                                              ; preds = %224
  unreachable
}