; Function Attrs: null_pointer_is_valid sspstrong uwtable
define internal void @dtap_gmm_auth_ciph_req(ptr noundef %0, ptr noundef %1, ptr noundef initializes((348, 352)) %2, i32 noundef %3, i32 noundef %4) #1 {
  %6 = getelementptr inbounds nuw i8, ptr %2, i64 348
  store i32 0, ptr %6, align 4
  %7 = icmp sgt i32 %4, 0
  br i1 %7, label %11, label %.thread

.thread:                                          ; preds = %5
  %8 = tail call ptr @get_gsm_a_msg_string(i32 noundef 5, i32 noundef 3)
  %9 = tail call ptr @get_gsm_a_msg_string(i32 noundef 5, i32 noundef 13)
  %10 = tail call ptr (ptr, ptr, ptr, ptr, i32, i32, ptr, ...) @proto_tree_add_expert_format(ptr noundef %1, ptr noundef %2, ptr noundef nonnull @ei_gsm_a_gm_missing_mandatory_element, ptr noundef %0, i32 noundef %3, i32 noundef 0, ptr noundef nonnull @.str.1096, ptr noundef %8, ptr noundef %9)
  br label %.thread137

11:                                               ; preds = %5
  %12 = tail call zeroext i16 @elem_v_short(ptr noundef %0, ptr noundef %1, ptr noundef %2, i32 noundef 5, i32 noundef 3, i32 noundef %3, i32 noundef 1)
  %13 = tail call zeroext i16 @elem_v_short(ptr noundef %0, ptr noundef %1, ptr noundef %2, i32 noundef 5, i32 noundef 13, i32 noundef %3, i32 noundef 2)
  %14 = add i32 %3, 1
  %.not = icmp eq i32 %4, 1
  br i1 %.not, label %.thread137, label %18

.thread137:                                       ; preds = %11, %.thread
  %.0108135 = phi i32 [ %3, %.thread ], [ %14, %11 ]
  %15 = tail call ptr @get_gsm_a_msg_string(i32 noundef 5, i32 noundef 8)
  %16 = tail call ptr @get_gsm_a_msg_string(i32 noundef 5, i32 noundef 23)
  %17 = tail call ptr (ptr, ptr, ptr, ptr, i32, i32, ptr, ...) @proto_tree_add_expert_format(ptr noundef %1, ptr noundef %2, ptr noundef nonnull @ei_gsm_a_gm_missing_mandatory_element, ptr noundef %0, i32 noundef %.0108135, i32 noundef 0, ptr noundef nonnull @.str.1096, ptr noundef %15, ptr noundef %16)
  br label %67

18:                                               ; preds = %11
  %19 = tail call zeroext i16 @elem_v_short(ptr noundef %0, ptr noundef %1, ptr noundef %2, i32 noundef 5, i32 noundef 8, i32 noundef %14, i32 noundef 1)
  %20 = tail call zeroext i16 @elem_v_short(ptr noundef %0, ptr noundef %1, ptr noundef %2, i32 noundef 5, i32 noundef 23, i32 noundef %14, i32 noundef 2)
  %21 = add nsw i32 %4, -2
  %22 = icmp eq i32 %21, 0
  br i1 %22, label %67, label %23

23:                                               ; preds = %18
  %24 = add i32 %3, 2
  %25 = tail call zeroext i16 @elem_tv(ptr noundef %0, ptr noundef %1, ptr noundef %2, i8 noundef zeroext 33, i32 noundef 1, i32 noundef 0, i32 noundef %24, ptr noundef null)
  %26 = zext i16 %25 to i32
  %27 = sub nsw i32 %21, %26
  %28 = icmp slt i32 %27, 1
  br i1 %28, label %67, label %29

29:                                               ; preds = %23
  %30 = add i32 %24, %26
  %31 = tail call zeroext i16 @elem_tv_short(ptr noundef %0, ptr noundef %1, ptr noundef %2, i8 noundef zeroext -128, i32 noundef 4, i32 noundef 1, i32 noundef %30, ptr noundef null)
  %32 = zext i16 %31 to i32
  %33 = sub nsw i32 %27, %32
  %34 = icmp slt i32 %33, 1
  br i1 %34, label %67, label %35

35:                                               ; preds = %29
  %36 = add i32 %30, %32
  %37 = tail call zeroext i16 @elem_tlv(ptr noundef %0, ptr noundef %1, ptr noundef %2, i8 noundef zeroext 40, i32 noundef 1, i32 noundef 1, i32 noundef %36, i32 noundef %33, ptr noundef null)
  %38 = zext i16 %37 to i32
  %39 = sub nsw i32 %33, %38
  %40 = icmp slt i32 %39, 1
  br i1 %40, label %67, label %41

41:                                               ; preds = %35
  %42 = add i32 %36, %38
  %43 = tail call zeroext i16 @elem_tlv(ptr noundef %0, ptr noundef %1, ptr noundef %2, i8 noundef zeroext 49, i32 noundef 5, i32 noundef 15, i32 noundef %42, i32 noundef %39, ptr noundef nonnull @.str.1113)
  %44 = zext i16 %43 to i32
  %45 = sub nsw i32 %39, %44
  %46 = icmp slt i32 %45, 1
  br i1 %46, label %67, label %47

47:                                               ; preds = %41
  %48 = add i32 %42, %44
  %49 = tail call zeroext i16 @elem_tlv(ptr noundef %0, ptr noundef %1, ptr noundef %2, i8 noundef zeroext 66, i32 noundef 5, i32 noundef 4, i32 noundef %48, i32 noundef %45, ptr noundef null)
  %50 = zext i16 %49 to i32
  %51 = sub nsw i32 %45, %50
  %52 = icmp slt i32 %51, 1
  br i1 %52, label %67, label %53

53:                                               ; preds = %47
  %54 = add i32 %48, %50
  %55 = tail call zeroext i16 @elem_tlv(ptr noundef %0, ptr noundef %1, ptr noundef %2, i8 noundef zeroext 67, i32 noundef 5, i32 noundef 38, i32 noundef %54, i32 noundef %51, ptr noundef null)
  %56 = zext i16 %55 to i32
  %57 = sub nsw i32 %51, %56
  %58 = icmp slt i32 %57, 1
  br i1 %58, label %67, label %59

59:                                               ; preds = %53
  %60 = add i32 %54, %56
  %61 = tail call zeroext i16 @elem_tlv(ptr noundef %0, ptr noundef %1, ptr noundef %2, i8 noundef zeroext 51, i32 noundef 5, i32 noundef 16, i32 noundef %60, i32 noundef %57, ptr noundef nonnull @.str.1114)
  %62 = zext i16 %61 to i32
  %.not132 = icmp eq i32 %57, %62
  br i1 %.not132, label %67, label %63

63:                                               ; preds = %59
  %64 = sub nsw i32 %57, %62
  %65 = add i32 %60, %62
  %66 = tail call ptr @proto_tree_add_expert(ptr noundef %1, ptr noundef %2, ptr noundef nonnull @ei_gsm_a_gm_extraneous_data, ptr noundef %0, i32 noundef %65, i32 noundef %64)
  br label %67

67:                                               ; preds = %.thread137, %59, %63, %53, %47, %41, %35, %29, %23, %18
  ret void
}